target datalayout = "e-m:e-p270:32:32-p271:32:32-p272:64:64-i64:64-i128:128-f80:128-n8:16:32:64-S128"
target triple = "x86_64-unknown-linux-gnu"

%"class.cvc5::internal::theory::arith::linear::RaiseConflict" = type { ptr }
%"class.cvc5::internal::theory::arith::linear::TempVarMalloc" = type { %"class.cvc5::internal::theory::arith::linear::ArithVarMalloc", ptr }
%"class.cvc5::internal::theory::arith::linear::ArithVarMalloc" = type { ptr }
%"class.cvc5::internal::theory::arith::linear::FCSimplexDecisionProcedure" = type { %"class.cvc5::internal::theory::arith::linear::SimplexDecisionProcedure", %"class.cvc5::internal::DenseMultiset", i32, i32, %"class.cvc5::internal::DenseMap.5", i32, i32, i32, %"class.cvc5::internal::DenseMap.4", %"class.std::vector", %"class.cvc5::internal::theory::arith::linear::FCSimplexDecisionProcedure::Statistics" }
%"class.cvc5::internal::theory::arith::linear::SimplexDecisionProcedure" = type { %"class.cvc5::internal::EnvObj", i32, %"class.cvc5::internal::DenseSet", i32, ptr, ptr, ptr, ptr, i32, %"class.cvc5::internal::theory::arith::linear::RaiseConflict", ptr, %"class.cvc5::internal::theory::arith::linear::TempVarMalloc", i32, %"class.cvc5::internal::Rational", %"class.cvc5::internal::Rational", %"class.cvc5::internal::Rational", i64 }
%"class.cvc5::internal::EnvObj" = type { ptr, ptr }
%"class.cvc5::internal::DenseSet" = type { %"class.cvc5::internal::DenseMap" }
%"class.cvc5::internal::DenseMap" = type { %"class.std::vector", %"class.std::vector", %"class.std::vector.0" }
%"class.std::vector.0" = type { %"struct.std::_Bvector_base" }
%"struct.std::_Bvector_base" = type { %"struct.std::_Bvector_base<std::allocator<bool>>::_Bvector_impl" }
%"struct.std::_Bvector_base<std::allocator<bool>>::_Bvector_impl" = type { %"struct.std::_Bvector_base<std::allocator<bool>>::_Bvector_impl_data" }
%"struct.std::_Bvector_base<std::allocator<bool>>::_Bvector_impl_data" = type { %"struct.std::_Bit_iterator", %"struct.std::_Bit_iterator", ptr }
%"struct.std::_Bit_iterator" = type { %"struct.std::_Bit_iterator_base.base", [4 x i8] }
%"struct.std::_Bit_iterator_base.base" = type <{ ptr, i32 }>
%"class.cvc5::internal::Rational" = type { %class.__gmp_expr }
%class.__gmp_expr = type { [1 x %struct.__mpq_struct] }
%struct.__mpq_struct = type { %struct.__mpz_struct, %struct.__mpz_struct }
%struct.__mpz_struct = type { i32, i32, ptr }
%"class.cvc5::internal::DenseMultiset" = type { %"class.cvc5::internal::DenseMap.4" }
%"class.cvc5::internal::DenseMap.5" = type { %"class.std::vector", %"class.std::vector", %"class.std::vector.6" }
%"class.std::vector.6" = type { %"struct.std::_Vector_base.7" }
%"struct.std::_Vector_base.7" = type { %"struct.std::_Vector_base<const cvc5::internal::Rational *, std::allocator<const cvc5::internal::Rational *>>::_Vector_impl" }
%"struct.std::_Vector_base<const cvc5::internal::Rational *, std::allocator<const cvc5::internal::Rational *>>::_Vector_impl" = type { %"struct.std::_Vector_base<const cvc5::internal::Rational *, std::allocator<const cvc5::internal::Rational *>>::_Vector_impl_data" }
%"struct.std::_Vector_base<const cvc5::internal::Rational *, std::allocator<const cvc5::internal::Rational *>>::_Vector_impl_data" = type { ptr, ptr, ptr }
%"class.cvc5::internal::DenseMap.4" = type { %"class.std::vector", %"class.std::vector", %"class.std::vector" }
%"class.std::vector" = type { %"struct.std::_Vector_base" }
%"struct.std::_Vector_base" = type { %"struct.std::_Vector_base<unsigned int, std::allocator<unsigned int>>::_Vector_impl" }
%"struct.std::_Vector_base<unsigned int, std::allocator<unsigned int>>::_Vector_impl" = type { %"struct.std::_Vector_base<unsigned int, std::allocator<unsigned int>>::_Vector_impl_data" }
%"struct.std::_Vector_base<unsigned int, std::allocator<unsigned int>>::_Vector_impl_data" = type { ptr, ptr, ptr }
%"class.cvc5::internal::theory::arith::linear::FCSimplexDecisionProcedure::Statistics" = type { %"class.cvc5::internal::TimerStat", %"class.cvc5::internal::IntStat", %"class.cvc5::internal::IntStat", %"class.cvc5::internal::IntStat", %"class.cvc5::internal::IntStat", %"class.cvc5::internal::TimerStat", %"class.cvc5::internal::TimerStat", %"class.cvc5::internal::TimerStat", %"class.cvc5::internal::TimerStat", %"class.cvc5::internal::ReferenceStat" }
%"class.cvc5::internal::IntStat" = type { %"class.cvc5::internal::ValueStat" }
%"class.cvc5::internal::ValueStat" = type { ptr }
%"class.cvc5::internal::TimerStat" = type { ptr }
%"class.cvc5::internal::ReferenceStat" = type { ptr }
%"class.__gnu_cxx::__normal_iterator.322" = type { ptr }

; Function Attrs: mustprogress nounwind uwtable
define linkonce_odr hidden void @_ZNSt15__new_allocatorIjE7destroyIjEEvPT_(ptr noundef nonnull align 1 dereferenceable(1) %this, ptr noundef %__p) #6 comdat align 2 {
entry:
  %this.addr = alloca ptr, align 8
  %__p.addr = alloca ptr, align 8
  store ptr %this, ptr %this.addr, align 8
  store ptr %__p, ptr %__p.addr, align 8
  ret void
}

; Function Attrs: mustprogress nounwind uwtable
define linkonce_odr hidden noundef nonnull align 4 dereferenceable(4) ptr @_ZNK9__gnu_cxx17__normal_iteratorIPKjSt6vectorIjSaIjEEEdeEv(ptr noundef nonnull align 8 dereferenceable(8) %this) #6 comdat align 2 {
entry:
  %this.addr = alloca ptr, align 8
  store ptr %this, ptr %this.addr, align 8
  %this1 = load ptr, ptr %this.addr, align 8
  %_M_current = getelementptr inbounds %"class.__gnu_cxx::__normal_iterator.322", ptr %this1, i32 0, i32 0
  %0 = load ptr, ptr %_M_current, align 8
  ret ptr %0
}

; Function Attrs: mustprogress nounwind uwtable
define linkonce_odr hidden ptr @_ZNK9__gnu_cxx17__normal_iteratorIPKjSt6vectorIjSaIjEEEmiEl(ptr noundef nonnull align 8 dereferenceable(8) %this, i64 noundef %__n) #6 comdat align 2 {
entry:
  %retval = alloca %"class.__gnu_cxx::__normal_iterator.322", align 8
  %this.addr = alloca ptr, align 8
  %__n.addr = alloca i64, align 8
  %ref.tmp = alloca ptr, align 8
  store ptr %this, ptr %this.addr, align 8
  store i64 %__n, ptr %__n.addr, align 8
  %this1 = load ptr, ptr %this.addr, align 8
  %_M_current = getelementptr inbounds %"class.__gnu_cxx::__normal_iterator.322", ptr %this1, i32 0, i32 0
  %0 = load ptr, ptr %_M_current, align 8
  %1 = load i64, ptr %__n.addr, align 8
  %idx.neg = sub i64 0, %1
  %add.ptr = getelementptr inbounds i32, ptr %0, i64 %idx.neg
  store ptr %add.ptr, ptr %ref.tmp, align 8
  call void @_ZN9__gnu_cxx17__normal_iteratorIPKjSt6vectorIjSaIjEEEC2ERKS2_(ptr noundef nonnull align 8 dereferenceable(8) %retval, ptr noundef nonnull align 8 dereferenceable(8) %ref.tmp) #3
  %coerce.dive = getelementptr inbounds %"class.__gnu_cxx::__normal_iterator.322", ptr %retval, i32 0, i32 0
  %2 = load ptr, ptr %coerce.dive, align 8
  ret ptr %2
}

; Function Attrs: mustprogress nounwind uwtable
define linkonce_odr hidden noundef nonnull align 8 dereferenceable(8) ptr @_ZNK9__gnu_cxx17__normal_iteratorIPKjSt6vectorIjSaIjEEE4baseEv(ptr noundef nonnull align 8 dereferenceable(8) %this) #6 comdat align 2 {
entry:
  %this.addr = alloca ptr, align 8
  store ptr %this, ptr %this.addr, align 8
  %this1 = load ptr, ptr %this.addr, align 8
  %_M_current = getelementptr inbounds %"class.__gnu_cxx::__normal_iterator.322", ptr %this1, i32 0, i32 0
  ret ptr %_M_current
}

; Function Attrs: mustprogress nounwind uwtable
define linkonce_odr hidden void @_ZN9__gnu_cxx17__normal_iteratorIPKjSt6vectorIjSaIjEEEC2ERKS2_(ptr noundef nonnull align 8 dereferenceable(8) %this, ptr noundef nonnull align 8 dereferenceable(8) %__i) unnamed_addr #6 comdat align 2 {
entry:
  %this.addr = alloca ptr, align 8
  %__i.addr = alloca ptr, align 8
  store ptr %this, ptr %this.addr, align 8
  store ptr %__i, ptr %__i.addr, align 8
  %this1 = load ptr, ptr %this.addr, align 8
  %_M_current = getelementptr inbounds %"class.__gnu_cxx::__normal_iterator.322", ptr %this1, i32 0, i32 0
  %0 = load ptr, ptr %__i.addr, align 8
  %1 = load ptr, ptr %0, align 8
  store ptr %1, ptr %_M_current, align 8
  ret void
}

; Function Attrs: mustprogress nounwind uwtable
define linkonce_odr hidden void @_ZNSt16allocator_traitsISaIjEE7destroyIjEEvRS0_PT_(ptr noundef nonnull align 1 dereferenceable(1) %__a, ptr noundef %__p) #6 comdat align 2 {
entry:
  %__a.addr = alloca ptr, align 8
  %__p.addr = alloca ptr, align 8
  store ptr %__a, ptr %__a.addr, align 8
  store ptr %__p, ptr %__p.addr, align 8
  %0 = load ptr, ptr %__a.addr, align 8
  %1 = load ptr, ptr %__p.addr, align 8
  call void @_ZNSt15__new_allocatorIjE7destroyIjEEvPT_(ptr noundef nonnull align 1 dereferenceable(1) %0, ptr noundef %1) #3
  ret void
}

; Function Attrs: mustprogress nounwind uwtable
define linkonce_odr hidden noundef nonnull align 4 dereferenceable(4) ptr @_ZNKSt6vectorIjSaIjEE4backEv(ptr noundef nonnull align 8 dereferenceable(24) %this) #6 comdat align 2 {
entry:
  %this.addr = alloca ptr, align 8
  %ref.tmp = alloca %"class.__gnu_cxx::__normal_iterator.322", align 8
  %ref.tmp2 = alloca %"class.__gnu_cxx::__normal_iterator.322", align 8
  store ptr %this, ptr %this.addr, align 8
  %this1 = load ptr, ptr %this.addr, align 8
  %call = call ptr @_ZNKSt6vectorIjSaIjEE3endEv(ptr noundef nonnull align 8 dereferenceable(24) %this1) #3
  %coerce.dive = getelementptr inbounds %"class.__gnu_cxx::__normal_iterator.322", ptr %ref.tmp2, i32 0, i32 0
  store ptr %call, ptr %coerce.dive, align 8
  %call3 = call ptr @_ZNK9__gnu_cxx17__normal_iteratorIPKjSt6vectorIjSaIjEEEmiEl(ptr noundef nonnull align 8 dereferenceable(8) %ref.tmp2, i64 noundef 1) #3
  %coerce.dive4 = getelementptr inbounds %"class.__gnu_cxx::__normal_iterator.322", ptr %ref.tmp, i32 0, i32 0
  store ptr %call3, ptr %coerce.dive4, align 8
  %call5 = call noundef nonnull align 4 dereferenceable(4) ptr @_ZNK9__gnu_cxx17__normal_iteratorIPKjSt6vectorIjSaIjEEEdeEv(ptr noundef nonnull align 8 dereferenceable(8) %ref.tmp) #3
  ret ptr %call5
}

; Function Attrs: mustprogress nounwind uwtable
define linkonce_odr noundef zeroext i1 @_ZN9__gnu_cxxeqIPKjSt6vectorIjSaIjEEEEbRKNS_17__normal_iteratorIT_T0_EESB_(ptr noundef nonnull align 8 dereferenceable(8) %__lhs, ptr noundef nonnull align 8 dereferenceable(8) %__rhs) #6 comdat {
entry:
  %__lhs.addr = alloca ptr, align 8
  %__rhs.addr = alloca ptr, align 8
  store ptr %__lhs, ptr %__lhs.addr, align 8
  store ptr %__rhs, ptr %__rhs.addr, align 8
  %0 = load ptr, ptr %__lhs.addr, align 8
  %call = call noundef nonnull align 8 dereferenceable(8) ptr @_ZNK9__gnu_cxx17__normal_iteratorIPKjSt6vectorIjSaIjEEE4baseEv(ptr noundef nonnull align 8 dereferenceable(8) %0) #3
  %1 = load ptr, ptr %call, align 8
  %2 = load ptr, ptr %__rhs.addr, align 8
  %call1 = call noundef nonnull align 8 dereferenceable(8) ptr @_ZNK9__gnu_cxx17__normal_iteratorIPKjSt6vectorIjSaIjEEE4baseEv(ptr noundef nonnull align 8 dereferenceable(8) %2) #3
  %3 = load ptr, ptr %call1, align 8
  %cmp = icmp eq ptr %1, %3
  ret i1 %cmp
}

; Function Attrs: mustprogress nounwind uwtable
define linkonce_odr hidden ptr @_ZNKSt6vectorIjSaIjEE3endEv(ptr noundef nonnull align 8 dereferenceable(24) %this) #6 comdat align 2 {
entry:
  %retval = alloca %"class.__gnu_cxx::__normal_iterator.322", align 8
  %this.addr = alloca ptr, align 8
  store ptr %this, ptr %this.addr, align 8
  %this1 = load ptr, ptr %this.addr, align 8
  %_M_impl = getelementptr inbounds %"struct.std::_Vector_base", ptr %this1, i32 0, i32 0
  %_M_finish = getelementptr inbounds %"struct.std::_Vector_base<unsigned int, std::allocator<unsigned int>>::_Vector_impl_data", ptr %_M_impl, i32 0, i32 1
  call void @_ZN9__gnu_cxx17__normal_iteratorIPKjSt6vectorIjSaIjEEEC2ERKS2_(ptr noundef nonnull align 8 dereferenceable(8) %retval, ptr noundef nonnull align 8 dereferenceable(8) %_M_finish) #3
  %coerce.dive = getelementptr inbounds %"class.__gnu_cxx::__normal_iterator.322", ptr %retval, i32 0, i32 0
  %0 = load ptr, ptr %coerce.dive, align 8
  ret ptr %0
}

; Function Attrs: mustprogress nounwind uwtable
define linkonce_odr hidden ptr @_ZNKSt6vectorIjSaIjEE5beginEv(ptr noundef nonnull align 8 dereferenceable(24) %this) #6 comdat align 2 {
entry:
  %retval = alloca %"class.__gnu_cxx::__normal_iterator.322", align 8
  %this.addr = alloca ptr, align 8
  store ptr %this, ptr %this.addr, align 8
  %this1 = load ptr, ptr %this.addr, align 8
  %_M_impl = getelementptr inbounds %"struct.std::_Vector_base", ptr %this1, i32 0, i32 0
  %_M_start = getelementptr inbounds %"struct.std::_Vector_base<unsigned int, std::allocator<unsigned int>>::_Vector_impl_data", ptr %_M_impl, i32 0, i32 0
  call void @_ZN9__gnu_cxx17__normal_iteratorIPKjSt6vectorIjSaIjEEEC2ERKS2_(ptr noundef nonnull align 8 dereferenceable(8) %retval, ptr noundef nonnull align 8 dereferenceable(8) %_M_start) #3
  %coerce.dive = getelementptr inbounds %"class.__gnu_cxx::__normal_iterator.322", ptr %retval, i32 0, i32 0
  %0 = load ptr, ptr %coerce.dive, align 8
  ret ptr %0
}

; Function Attrs: mustprogress nounwind uwtable
define linkonce_odr hidden void @_ZNSt6vectorIjSaIjEE8pop_backEv(ptr noundef nonnull align 8 dereferenceable(24) %this) #6 comdat align 2 {
entry:
  %this.addr = alloca ptr, align 8
  store ptr %this, ptr %this.addr, align 8
  %this1 = load ptr, ptr %this.addr, align 8
  %_M_impl = getelementptr inbounds %"struct.std::_Vector_base", ptr %this1, i32 0, i32 0
  %_M_finish = getelementptr inbounds %"struct.std::_Vector_base<unsigned int, std::allocator<unsigned int>>::_Vector_impl_data", ptr %_M_impl, i32 0, i32 1
  %0 = load ptr, ptr %_M_finish, align 8
  %incdec.ptr = getelementptr inbounds i32, ptr %0, i32 -1
  store ptr %incdec.ptr, ptr %_M_finish, align 8
  %_M_impl2 = getelementptr inbounds %"struct.std::_Vector_base", ptr %this1, i32 0, i32 0
  %_M_impl3 = getelementptr inbounds %"struct.std::_Vector_base", ptr %this1, i32 0, i32 0
  %_M_finish4 = getelementptr inbounds %"struct.std::_Vector_base<unsigned int, std::allocator<unsigned int>>::_Vector_impl_data", ptr %_M_impl3, i32 0, i32 1
  %1 = load ptr, ptr %_M_finish4, align 8
  call void @_ZNSt16allocator_traitsISaIjEE7destroyIjEEvRS0_PT_(ptr noundef nonnull align 1 dereferenceable(1) %_M_impl2, ptr noundef %1) #3
  ret void
}

; Function Attrs: mustprogress nounwind uwtable
define linkonce_odr hidden noundef nonnull align 8 dereferenceable(8) ptr @_ZNSt6vectorIPKN4cvc58internal8RationalESaIS4_EEixEm(ptr noundef nonnull align 8 dereferenceable(24) %this, i64 noundef %__n) #6 comdat align 2 {
entry:
  %this.addr = alloca ptr, align 8
  %__n.addr = alloca i64, align 8
  store ptr %this, ptr %this.addr, align 8
  store i64 %__n, ptr %__n.addr, align 8
  %this1 = load ptr, ptr %this.addr, align 8
  %_M_impl = getelementptr inbounds %"struct.std::_Vector_base.7", ptr %this1, i32 0, i32 0
  %_M_start = getelementptr inbounds %"struct.std::_Vector_base<const cvc5::internal::Rational *, std::allocator<const cvc5::internal::Rational *>>::_Vector_impl_data", ptr %_M_impl, i32 0, i32 0
  %0 = load ptr, ptr %_M_start, align 8
  %1 = load i64, ptr %__n.addr, align 8
  %add.ptr = getelementptr inbounds ptr, ptr %0, i64 %1
  ret ptr %add.ptr
}

; Function Attrs: mustprogress nounwind uwtable
define linkonce_odr hidden noundef nonnull align 4 dereferenceable(4) ptr @_ZNSt6vectorIjSaIjEEixEm(ptr noundef nonnull align 8 dereferenceable(24) %this, i64 noundef %__n) #6 comdat align 2 {
entry:
  %this.addr = alloca ptr, align 8
  %__n.addr = alloca i64, align 8
  store ptr %this, ptr %this.addr, align 8
  store i64 %__n, ptr %__n.addr, align 8
  %this1 = load ptr, ptr %this.addr, align 8
  %_M_impl = getelementptr inbounds %"struct.std::_Vector_base", ptr %this1, i32 0, i32 0
  %_M_start = getelementptr inbounds %"struct.std::_Vector_base<unsigned int, std::allocator<unsigned int>>::_Vector_impl_data", ptr %_M_impl, i32 0, i32 0
  %0 = load ptr, ptr %_M_start, align 8
  %1 = load i64, ptr %__n.addr, align 8
  %add.ptr = getelementptr inbounds i32, ptr %0, i64 %1
  ret ptr %add.ptr
}

; Function Attrs: mustprogress nounwind uwtable
define linkonce_odr hidden noundef i32 @_ZNK4cvc58internal8DenseMapIPKNS0_8RationalEE4backEv(ptr noundef nonnull align 8 dereferenceable(72) %this) #6 comdat align 2 {
entry:
  %this.addr = alloca ptr, align 8
  store ptr %this, ptr %this.addr, align 8
  %this1 = load ptr, ptr %this.addr, align 8
  %d_list = getelementptr inbounds %"class.cvc5::internal::DenseMap.5", ptr %this1, i32 0, i32 0
  %call = call noundef nonnull align 4 dereferenceable(4) ptr @_ZNKSt6vectorIjSaIjEE4backEv(ptr noundef nonnull align 8 dereferenceable(24) %d_list) #3
  %0 = load i32, ptr %call, align 4
  ret i32 %0
}

; Function Attrs: mustprogress nounwind uwtable
define linkonce_odr hidden noundef zeroext i1 @_ZNKSt6vectorIjSaIjEE5emptyEv(ptr noundef nonnull align 8 dereferenceable(24) %this) #6 comdat align 2 {
entry:
  %this.addr = alloca ptr, align 8
  %ref.tmp = alloca %"class.__gnu_cxx::__normal_iterator.322", align 8
  %ref.tmp2 = alloca %"class.__gnu_cxx::__normal_iterator.322", align 8
  store ptr %this, ptr %this.addr, align 8
  %this1 = load ptr, ptr %this.addr, align 8
  %call = call ptr @_ZNKSt6vectorIjSaIjEE5beginEv(ptr noundef nonnull align 8 dereferenceable(24) %this1) #3
  %coerce.dive = getelementptr inbounds %"class.__gnu_cxx::__normal_iterator.322", ptr %ref.tmp, i32 0, i32 0
  store ptr %call, ptr %coerce.dive, align 8
  %call3 = call ptr @_ZNKSt6vectorIjSaIjEE3endEv(ptr noundef nonnull align 8 dereferenceable(24) %this1) #3
  %coerce.dive4 = getelementptr inbounds %"class.__gnu_cxx::__normal_iterator.322", ptr %ref.tmp2, i32 0, i32 0
  store ptr %call3, ptr %coerce.dive4, align 8
  %call5 = call noundef zeroext i1 @_ZN9__gnu_cxxeqIPKjSt6vectorIjSaIjEEEEbRKNS_17__normal_iteratorIT_T0_EESB_(ptr noundef nonnull align 8 dereferenceable(8) %ref.tmp, ptr noundef nonnull align 8 dereferenceable(8) %ref.tmp2) #3
  ret i1 %call5
}

; Function Attrs: mustprogress uwtable
define linkonce_odr hidden void @_ZN4cvc58internal8DenseMapIPKNS0_8RationalEE8pop_backEv(ptr noundef nonnull align 8 dereferenceable(72) %this) #4 comdat align 2 {
entry:
  %this.addr = alloca ptr, align 8
  %atBack = alloca i32, align 4
  store ptr %this, ptr %this.addr, align 8
  %this1 = load ptr, ptr %this.addr, align 8
  %call = call noundef i32 @_ZNK4cvc58internal8DenseMapIPKNS0_8RationalEE4backEv(ptr noundef nonnull align 8 dereferenceable(72) %this1)
  store i32 %call, ptr %atBack, align 4
  %d_posVector = getelementptr inbounds %"class.cvc5::internal::DenseMap.5", ptr %this1, i32 0, i32 1
  %0 = load i32, ptr %atBack, align 4
  %conv = zext i32 %0 to i64
  %call2 = call noundef nonnull align 4 dereferenceable(4) ptr @_ZNSt6vectorIjSaIjEEixEm(ptr noundef nonnull align 8 dereferenceable(24) %d_posVector, i64 noundef %conv) #3
  store i32 -1, ptr %call2, align 4
  %d_image = getelementptr inbounds %"class.cvc5::internal::DenseMap.5", ptr %this1, i32 0, i32 2
  %1 = load i32, ptr %atBack, align 4
  %conv3 = zext i32 %1 to i64
  %call4 = call noundef nonnull align 8 dereferenceable(8) ptr @_ZNSt6vectorIPKN4cvc58internal8RationalESaIS4_EEixEm(ptr noundef nonnull align 8 dereferenceable(24) %d_image, i64 noundef %conv3) #3
  store ptr null, ptr %call4, align 8
  %d_list = getelementptr inbounds %"class.cvc5::internal::DenseMap.5", ptr %this1, i32 0, i32 0
  call void @_ZNSt6vectorIjSaIjEE8pop_backEv(ptr noundef nonnull align 8 dereferenceable(24) %d_list) #3
  ret void
}

; Function Attrs: mustprogress nounwind uwtable
define linkonce_odr hidden noundef zeroext i1 @_ZNK4cvc58internal8DenseMapIPKNS0_8RationalEE5emptyEv(ptr noundef nonnull align 8 dereferenceable(72) %this) #6 comdat align 2 {
entry:
  %this.addr = alloca ptr, align 8
  store ptr %this, ptr %this.addr, align 8
  %this1 = load ptr, ptr %this.addr, align 8
  %d_list = getelementptr inbounds %"class.cvc5::internal::DenseMap.5", ptr %this1, i32 0, i32 0
  %call = call noundef zeroext i1 @_ZNKSt6vectorIjSaIjEE5emptyEv(ptr noundef nonnull align 8 dereferenceable(24) %d_list) #3
  ret i1 %call
}

; Function Attrs: mustprogress uwtable
define linkonce_odr hidden void @_ZN4cvc58internal8DenseMapIPKNS0_8RationalEE5purgeEv(ptr noundef nonnull align 8 dereferenceable(72) %this) #4 comdat align 2 {
entry:
  %this.addr = alloca ptr, align 8
  store ptr %this, ptr %this.addr, align 8
  %this1 = load ptr, ptr %this.addr, align 8
  br label %while.cond

while.cond:                                       ; preds = %while.body, %entry
  %call = call noundef zeroext i1 @_ZNK4cvc58internal8DenseMapIPKNS0_8RationalEE5emptyEv(ptr noundef nonnull align 8 dereferenceable(72) %this1)
  %lnot = xor i1 %call, true
  br i1 %lnot, label %while.body, label %while.end

while.body:                                       ; preds = %while.cond
  call void @_ZN4cvc58internal8DenseMapIPKNS0_8RationalEE8pop_backEv(ptr noundef nonnull align 8 dereferenceable(72) %this1)
  br label %while.cond, !llvm.loop !47

while.end:                                        ; preds = %while.cond
  ret void
}

; Function Attrs: mustprogress uwtable
define hidden void @_ZN4cvc58internal6theory5arith6linear26FCSimplexDecisionProcedure16unloadFocusSignsEv(ptr noundef nonnull align 8 dereferenceable(648) %this) #4 align 2 {
entry:
  %this.addr = alloca ptr, align 8
  store ptr %this, ptr %this.addr, align 8
  %this1 = load ptr, ptr %this.addr, align 8
  %d_focusCoefficients = getelementptr inbounds %"class.cvc5::internal::theory::arith::linear::FCSimplexDecisionProcedure", ptr %this1, i32 0, i32 4
  call void @_ZN4cvc58internal8DenseMapIPKNS0_8RationalEE5purgeEv(ptr noundef nonnull align 8 dereferenceable(72) %d_focusCoefficients)
  ret void
}