; Function Attrs: mustprogress nofree norecurse nosync nounwind memory(readwrite, inaccessiblemem: none) uwtable
define hidden void @_ZN4cvc58internal6theory5arith6linear26FCSimplexDecisionProcedure16unloadFocusSignsEv(ptr nocapture noundef nonnull align 8 dereferenceable(648) %this) local_unnamed_addr #7 align 2 {
entry:
  %d_focusCoefficients = getelementptr inbounds i8, ptr %this, i64 384
  %_M_finish.i.i.i.i = getelementptr inbounds i8, ptr %this, i64 392
  %0 = load ptr, ptr %d_focusCoefficients, align 8
  %1 = load ptr, ptr %_M_finish.i.i.i.i, align 8
  %cmp.i.i.i1.i = icmp eq ptr %0, %1
  br i1 %cmp.i.i.i1.i, label %_ZN4cvc58internal8DenseMapIPKNS0_8RationalEE5purgeEv.exit, label %while.body.lr.ph.i

while.body.lr.ph.i:                               ; preds = %entry
  %d_posVector.i.i = getelementptr inbounds i8, ptr %this, i64 408
  %d_image.i.i = getelementptr inbounds i8, ptr %this, i64 432
  br label %while.body.i

while.body.i:                                     ; preds = %while.body.i, %while.body.lr.ph.i
  %2 = phi ptr [ %1, %while.body.lr.ph.i ], [ %incdec.ptr.i.i.i, %while.body.i ]
  %add.ptr.i.i.i.i.i = getelementptr inbounds i8, ptr %2, i64 -4
  %3 = load i32, ptr %add.ptr.i.i.i.i.i, align 4
  %conv.i.i = zext i32 %3 to i64
  %4 = load ptr, ptr %d_posVector.i.i, align 8
  %add.ptr.i.i.i = getelementptr inbounds i32, ptr %4, i64 %conv.i.i
  store i32 -1, ptr %add.ptr.i.i.i, align 4
  %5 = load ptr, ptr %d_image.i.i, align 8
  %add.ptr.i2.i.i = getelementptr inbounds ptr, ptr %5, i64 %conv.i.i
  store ptr null, ptr %add.ptr.i2.i.i, align 8
  %6 = load ptr, ptr %_M_finish.i.i.i.i, align 8
  %incdec.ptr.i.i.i = getelementptr inbounds i8, ptr %6, i64 -4
  store ptr %incdec.ptr.i.i.i, ptr %_M_finish.i.i.i.i, align 8
  %7 = load ptr, ptr %d_focusCoefficients, align 8
  %cmp.i.i.i.i = icmp eq ptr %7, %incdec.ptr.i.i.i
  br i1 %cmp.i.i.i.i, label %_ZN4cvc58internal8DenseMapIPKNS0_8RationalEE5purgeEv.exit, label %while.body.i, !llvm.loop !25

_ZN4cvc58internal8DenseMapIPKNS0_8RationalEE5purgeEv.exit: ; preds = %while.body.i, %entry
  ret void
}